target datalayout = "e-m:e-p270:32:32-p271:32:32-p272:64:64-i64:64-i128:128-f80:128-n8:16:32:64-S128"
target triple = "x86_64-unknown-linux-gnu"

%class.aiMatrix4x4t = type { float, float, float, float, float, float, float, float, float, float, float, float, float, float, float, float }

@_ZTI17DeadlyImportError = linkonce_odr constant { ptr, ptr, ptr } { ptr getelementptr inbounds (ptr, ptr @_ZTVN10__cxxabiv120__si_class_type_infoE, i64 2), ptr @_ZTS17DeadlyImportError, ptr @_ZTI15DeadlyErrorBase }, comdat, align 8
@.str.13 = private unnamed_addr constant [15 x i8] c"Unexpected EOF\00", align 1

; Function Attrs: mustprogress nounwind uwtable
define linkonce_odr hidden noundef ptr @_ZN12aiMatrix4x4tIfEixEj(ptr noundef nonnull align 4 dereferenceable(64) %this, i32 noundef %p_iIndex) #0 comdat align 2 {
entry:
  %retval = alloca ptr, align 8
  %this.addr = alloca ptr, align 8
  %p_iIndex.addr = alloca i32, align 4
  store ptr %this, ptr %this.addr, align 8
  store i32 %p_iIndex, ptr %p_iIndex.addr, align 4
  %this1 = load ptr, ptr %this.addr, align 8
  %0 = load i32, ptr %p_iIndex.addr, align 4
  %cmp = icmp ugt i32 %0, 3
  br i1 %cmp, label %if.then, label %if.end

if.then:                                          ; preds = %entry
  store ptr null, ptr %retval, align 8
  br label %return

if.end:                                           ; preds = %entry
  %1 = load i32, ptr %p_iIndex.addr, align 4
  switch i32 %1, label %sw.default [
    i32 0, label %sw.bb
    i32 1, label %sw.bb2
    i32 2, label %sw.bb3
    i32 3, label %sw.bb4
  ]

sw.bb:                                            ; preds = %if.end
  %a1 = getelementptr inbounds %class.aiMatrix4x4t, ptr %this1, i32 0, i32 0
  store ptr %a1, ptr %retval, align 8
  br label %return

sw.bb2:                                           ; preds = %if.end
  %b1 = getelementptr inbounds %class.aiMatrix4x4t, ptr %this1, i32 0, i32 4
  store ptr %b1, ptr %retval, align 8
  br label %return

sw.bb3:                                           ; preds = %if.end
  %c1 = getelementptr inbounds %class.aiMatrix4x4t, ptr %this1, i32 0, i32 8
  store ptr %c1, ptr %retval, align 8
  br label %return

sw.bb4:                                           ; preds = %if.end
  %d1 = getelementptr inbounds %class.aiMatrix4x4t, ptr %this1, i32 0, i32 12
  store ptr %d1, ptr %retval, align 8
  br label %return

sw.default:                                       ; preds = %if.end
  br label %sw.epilog

sw.epilog:                                        ; preds = %sw.default
  %a15 = getelementptr inbounds %class.aiMatrix4x4t, ptr %this1, i32 0, i32 0
  store ptr %a15, ptr %retval, align 8
  br label %return

return:                                           ; preds = %sw.epilog, %sw.bb4, %sw.bb3, %sw.bb2, %sw.bb, %if.then
  %2 = load ptr, ptr %retval, align 8
  ret ptr %2
}

; Function Attrs: mustprogress uwtable
define linkonce_odr hidden noundef float @_Z4ReadIfET_PN6Assimp8IOStreamE(ptr noundef %stream) #2 comdat personality ptr @__gxx_personality_v0 {
entry:
  %stream.addr = alloca ptr, align 8
  %t = alloca float, align 4
  %res = alloca i64, align 8
  %exn.slot = alloca ptr, align 8
  %ehselector.slot = alloca i32, align 4
  store ptr %stream, ptr %stream.addr, align 8
  %0 = load ptr, ptr %stream.addr, align 8
  %vtable = load ptr, ptr %0, align 8
  %vfn = getelementptr inbounds ptr, ptr %vtable, i64 2
  %1 = load ptr, ptr %vfn, align 8
  %call = call noundef i64 %1(ptr noundef nonnull align 8 dereferenceable(8) %0, ptr noundef %t, i64 noundef 4, i64 noundef 1)
  store i64 %call, ptr %res, align 8
  %2 = load i64, ptr %res, align 8
  %cmp = icmp ne i64 %2, 1
  br i1 %cmp, label %if.then, label %if.end

if.then:                                          ; preds = %entry
  %exception = call ptr @__cxa_allocate_exception(i64 16) #15
  invoke void @_ZN17DeadlyImportErrorC2EPKc(ptr noundef nonnull align 8 dereferenceable(16) %exception, ptr noundef @.str.13)
          to label %invoke.cont unwind label %lpad

invoke.cont:                                      ; preds = %if.then
  call void @__cxa_throw(ptr %exception, ptr @_ZTI17DeadlyImportError, ptr @_ZN17DeadlyImportErrorD2Ev) #17
  unreachable

lpad:                                             ; preds = %if.then
  %3 = landingpad { ptr, i32 }
          cleanup
  %4 = extractvalue { ptr, i32 } %3, 0
  store ptr %4, ptr %exn.slot, align 8
  %5 = extractvalue { ptr, i32 } %3, 1
  store i32 %5, ptr %ehselector.slot, align 4
  call void @__cxa_free_exception(ptr %exception) #15
  br label %eh.resume

if.end:                                           ; preds = %entry
  %6 = load float, ptr %t, align 4
  ret float %6

eh.resume:                                        ; preds = %lpad
  %exn = load ptr, ptr %exn.slot, align 8
  %sel = load i32, ptr %ehselector.slot, align 4
  %lpad.val = insertvalue { ptr, i32 } poison, ptr %exn, 0
  %lpad.val1 = insertvalue { ptr, i32 } %lpad.val, i32 %sel, 1
  resume { ptr, i32 } %lpad.val1
}

; Function Attrs: mustprogress nounwind uwtable
define linkonce_odr hidden void @_ZN12aiMatrix4x4tIfEC2Ev(ptr noundef nonnull align 4 dereferenceable(64) %this) unnamed_addr #0 comdat align 2 {
entry:
  %this.addr = alloca ptr, align 8
  store ptr %this, ptr %this.addr, align 8
  %this1 = load ptr, ptr %this.addr, align 8
  %a1 = getelementptr inbounds %class.aiMatrix4x4t, ptr %this1, i32 0, i32 0
  store float 1.000000e+00, ptr %a1, align 4
  %a2 = getelementptr inbounds %class.aiMatrix4x4t, ptr %this1, i32 0, i32 1
  store float 0.000000e+00, ptr %a2, align 4
  %a3 = getelementptr inbounds %class.aiMatrix4x4t, ptr %this1, i32 0, i32 2
  store float 0.000000e+00, ptr %a3, align 4
  %a4 = getelementptr inbounds %class.aiMatrix4x4t, ptr %this1, i32 0, i32 3
  store float 0.000000e+00, ptr %a4, align 4
  %b1 = getelementptr inbounds %class.aiMatrix4x4t, ptr %this1, i32 0, i32 4
  store float 0.000000e+00, ptr %b1, align 4
  %b2 = getelementptr inbounds %class.aiMatrix4x4t, ptr %this1, i32 0, i32 5
  store float 1.000000e+00, ptr %b2, align 4
  %b3 = getelementptr inbounds %class.aiMatrix4x4t, ptr %this1, i32 0, i32 6
  store float 0.000000e+00, ptr %b3, align 4
  %b4 = getelementptr inbounds %class.aiMatrix4x4t, ptr %this1, i32 0, i32 7
  store float 0.000000e+00, ptr %b4, align 4
  %c1 = getelementptr inbounds %class.aiMatrix4x4t, ptr %this1, i32 0, i32 8
  store float 0.000000e+00, ptr %c1, align 4
  %c2 = getelementptr inbounds %class.aiMatrix4x4t, ptr %this1, i32 0, i32 9
  store float 0.000000e+00, ptr %c2, align 4
  %c3 = getelementptr inbounds %class.aiMatrix4x4t, ptr %this1, i32 0, i32 10
  store float 1.000000e+00, ptr %c3, align 4
  %c4 = getelementptr inbounds %class.aiMatrix4x4t, ptr %this1, i32 0, i32 11
  store float 0.000000e+00, ptr %c4, align 4
  %d1 = getelementptr inbounds %class.aiMatrix4x4t, ptr %this1, i32 0, i32 12
  store float 0.000000e+00, ptr %d1, align 4
  %d2 = getelementptr inbounds %class.aiMatrix4x4t, ptr %this1, i32 0, i32 13
  store float 0.000000e+00, ptr %d2, align 4
  %d3 = getelementptr inbounds %class.aiMatrix4x4t, ptr %this1, i32 0, i32 14
  store float 0.000000e+00, ptr %d3, align 4
  %d4 = getelementptr inbounds %class.aiMatrix4x4t, ptr %this1, i32 0, i32 15
  store float 1.000000e+00, ptr %d4, align 4
  ret void
}

; Function Attrs: mustprogress uwtable
define hidden void @_Z4ReadI12aiMatrix4x4tIfEET_PN6Assimp8IOStreamE(ptr noalias sret(%class.aiMatrix4x4t) align 4 %agg.result, ptr noundef %stream) #2 {
entry:
  %stream.addr = alloca ptr, align 8
  %i = alloca i32, align 4
  %i2 = alloca i32, align 4
  store ptr %stream, ptr %stream.addr, align 8
  call void @_ZN12aiMatrix4x4tIfEC2Ev(ptr noundef nonnull align 4 dereferenceable(64) %agg.result) #15
  store i32 0, ptr %i, align 4
  br label %for.cond

for.cond:                                         ; preds = %for.inc5, %entry
  %0 = load i32, ptr %i, align 4
  %cmp = icmp ult i32 %0, 4
  br i1 %cmp, label %for.body, label %for.end7

for.body:                                         ; preds = %for.cond
  store i32 0, ptr %i2, align 4
  br label %for.cond1

for.cond1:                                        ; preds = %for.inc, %for.body
  %1 = load i32, ptr %i2, align 4
  %cmp2 = icmp ult i32 %1, 4
  br i1 %cmp2, label %for.body3, label %for.end

for.body3:                                        ; preds = %for.cond1
  %2 = load ptr, ptr %stream.addr, align 8
  %call = call noundef float @_Z4ReadIfET_PN6Assimp8IOStreamE(ptr noundef %2)
  %3 = load i32, ptr %i, align 4
  %call4 = call noundef ptr @_ZN12aiMatrix4x4tIfEixEj(ptr noundef nonnull align 4 dereferenceable(64) %agg.result, i32 noundef %3)
  %4 = load i32, ptr %i2, align 4
  %idxprom = zext i32 %4 to i64
  %arrayidx = getelementptr inbounds float, ptr %call4, i64 %idxprom
  store float %call, ptr %arrayidx, align 4
  br label %for.inc

for.inc:                                          ; preds = %for.body3
  %5 = load i32, ptr %i2, align 4
  %inc = add i32 %5, 1
  store i32 %inc, ptr %i2, align 4
  br label %for.cond1, !llvm.loop !4

for.end:                                          ; preds = %for.cond1
  br label %for.inc5

for.inc5:                                         ; preds = %for.end
  %6 = load i32, ptr %i, align 4
  %inc6 = add i32 %6, 1
  store i32 %inc6, ptr %i, align 4
  br label %for.cond, !llvm.loop !6

for.end7:                                         ; preds = %for.cond
  ret void
}