; Function Attrs: mustprogress uwtable
define hidden void @_Z4ReadI12aiMatrix4x4tIfEET_PN6Assimp8IOStreamE(ptr noalias nocapture writeonly sret(%class.aiMatrix4x4t) align 4 %agg.result, ptr noundef %stream) local_unnamed_addr #1 personality ptr @__gxx_personality_v0 {
entry:
  %t.i = alloca float, align 4
  store float 1.000000e+00, ptr %agg.result, align 4
  %a2.i = getelementptr inbounds i8, ptr %agg.result, i64 4
  %b2.i = getelementptr inbounds i8, ptr %agg.result, i64 20
  tail call void @llvm.memset.p0.i64(ptr noundef nonnull align 4 dereferenceable(16) %a2.i, i8 0, i64 16, i1 false)
  store float 1.000000e+00, ptr %b2.i, align 4
  %b3.i = getelementptr inbounds i8, ptr %agg.result, i64 24
  %c3.i = getelementptr inbounds i8, ptr %agg.result, i64 40
  tail call void @llvm.memset.p0.i64(ptr noundef nonnull align 4 dereferenceable(16) %b3.i, i8 0, i64 16, i1 false)
  store float 1.000000e+00, ptr %c3.i, align 4
  %c4.i = getelementptr inbounds i8, ptr %agg.result, i64 44
  %d4.i = getelementptr inbounds i8, ptr %agg.result, i64 60
  tail call void @llvm.memset.p0.i64(ptr noundef nonnull align 4 dereferenceable(16) %c4.i, i8 0, i64 16, i1 false)
  store float 1.000000e+00, ptr %d4.i, align 4
  %d1.i = getelementptr inbounds i8, ptr %agg.result, i64 48
  %c1.i = getelementptr inbounds i8, ptr %agg.result, i64 32
  %b1.i = getelementptr inbounds i8, ptr %agg.result, i64 16
  br label %for.cond1.preheader

for.cond1.preheader:                              ; preds = %entry, %for.inc5
  %i.06 = phi i32 [ 0, %entry ], [ %inc6, %for.inc5 ]
  br label %for.body3

for.body3:                                        ; preds = %for.cond1.preheader, %_ZN12aiMatrix4x4tIfEixEj.exit
  %indvars.iv = phi i64 [ 0, %for.cond1.preheader ], [ %indvars.iv.next, %_ZN12aiMatrix4x4tIfEixEj.exit ]
  call void @llvm.lifetime.start.p0(i64 4, ptr nonnull %t.i)
  %vtable.i = load ptr, ptr %stream, align 8
  %vfn.i = getelementptr inbounds i8, ptr %vtable.i, i64 16
  %0 = load ptr, ptr %vfn.i, align 8
  %call.i = call noundef i64 %0(ptr noundef nonnull align 8 dereferenceable(8) %stream, ptr noundef nonnull %t.i, i64 noundef 4, i64 noundef 1)
  %cmp.not.i = icmp eq i64 %call.i, 1
  br i1 %cmp.not.i, label %_Z4ReadIfET_PN6Assimp8IOStreamE.exit, label %if.then.i

if.then.i:                                        ; preds = %for.body3
  %exception.i = call ptr @__cxa_allocate_exception(i64 16) #15
  invoke void @_ZN17DeadlyImportErrorC2EPKc(ptr noundef nonnull align 8 dereferenceable(16) %exception.i, ptr noundef nonnull @.str.13)
          to label %invoke.cont.i unwind label %lpad.i

invoke.cont.i:                                    ; preds = %if.then.i
  call void @__cxa_throw(ptr nonnull %exception.i, ptr nonnull @_ZTI17DeadlyImportError, ptr nonnull @_ZN17DeadlyImportErrorD2Ev) #16
  unreachable

lpad.i:                                           ; preds = %if.then.i
  %1 = landingpad { ptr, i32 }
          cleanup
  call void @__cxa_free_exception(ptr %exception.i) #15
  resume { ptr, i32 } %1

_Z4ReadIfET_PN6Assimp8IOStreamE.exit:             ; preds = %for.body3
  %2 = load float, ptr %t.i, align 4
  call void @llvm.lifetime.end.p0(i64 4, ptr nonnull %t.i)
  switch i32 %i.06, label %default.unreachable.i [
    i32 0, label %_ZN12aiMatrix4x4tIfEixEj.exit
    i32 1, label %sw.bb2.i
    i32 2, label %sw.bb3.i
    i32 3, label %sw.bb4.i
  ]

sw.bb2.i:                                         ; preds = %_Z4ReadIfET_PN6Assimp8IOStreamE.exit
  br label %_ZN12aiMatrix4x4tIfEixEj.exit

sw.bb3.i:                                         ; preds = %_Z4ReadIfET_PN6Assimp8IOStreamE.exit
  br label %_ZN12aiMatrix4x4tIfEixEj.exit

sw.bb4.i:                                         ; preds = %_Z4ReadIfET_PN6Assimp8IOStreamE.exit
  br label %_ZN12aiMatrix4x4tIfEixEj.exit

default.unreachable.i:                            ; preds = %_Z4ReadIfET_PN6Assimp8IOStreamE.exit
  unreachable

_ZN12aiMatrix4x4tIfEixEj.exit:                    ; preds = %_Z4ReadIfET_PN6Assimp8IOStreamE.exit, %sw.bb2.i, %sw.bb3.i, %sw.bb4.i
  %retval.0.i = phi ptr [ %d1.i, %sw.bb4.i ], [ %c1.i, %sw.bb3.i ], [ %b1.i, %sw.bb2.i ], [ %agg.result, %_Z4ReadIfET_PN6Assimp8IOStreamE.exit ]
  %arrayidx = getelementptr inbounds float, ptr %retval.0.i, i64 %indvars.iv
  store float %2, ptr %arrayidx, align 4
  %indvars.iv.next = add nuw nsw i64 %indvars.iv, 1
  %exitcond.not = icmp eq i64 %indvars.iv.next, 4
  br i1 %exitcond.not, label %for.inc5, label %for.body3, !llvm.loop !4

for.inc5:                                         ; preds = %_ZN12aiMatrix4x4tIfEixEj.exit
  %inc6 = add nuw nsw i32 %i.06, 1
  %exitcond8.not = icmp eq i32 %inc6, 4
  br i1 %exitcond8.not, label %for.end7, label %for.cond1.preheader, !llvm.loop !6

for.end7:                                         ; preds = %for.inc5
  ret void
}